target datalayout = "e-m:e-p270:32:32-p271:32:32-p272:64:64-i64:64-i128:128-f80:128-n8:16:32:64-S128"
target triple = "x86_64-pc-linux-gnu"

%"class.sls::bvect" = type <{ %class.svector, i32, i32, i32, [4 x i8] }>
%class.svector = type { %class.vector }
%class.vector = type { ptr }
%class.mpn_manager = type { i8 }
%"class.sls::bv_valuation" = type { %"class.sls::bvect", %"class.sls::bvect", %"class.sls::bvect", %"class.sls::bvect", %"class.sls::bvect", %"class.sls::bvect", i32, i32, i32, i32, %"class.sls::bvect" }

; Function Attrs: mustprogress nounwind uwtable
define linkonce_odr hidden noundef ptr @_ZNK6vectorIjLb0EjE4dataEv(ptr noundef nonnull align 8 dereferenceable(8) %0) #5 comdat align 2 {
  %2 = alloca ptr, align 8
  store ptr %0, ptr %2, align 8, !tbaa !17
  %3 = load ptr, ptr %2, align 8
  %4 = getelementptr inbounds nuw %class.vector, ptr %3, i32 0, i32 0
  %5 = load ptr, ptr %4, align 8, !tbaa !19
  ret ptr %5
}

; Function Attrs: mustprogress uwtable
define hidden noundef zeroext i1 @_ZNK3sls12bv_valuation8in_rangeERKNS_5bvectE(ptr noundef nonnull align 8 dereferenceable(184) %0, ptr noundef nonnull align 8 dereferenceable(20) %1) #4 align 2 {
  %3 = alloca i1, align 1
  %4 = alloca ptr, align 8
  %5 = alloca ptr, align 8
  %6 = alloca %class.mpn_manager, align 1
  %7 = alloca i32, align 4
  %8 = alloca i32, align 4
  store ptr %0, ptr %4, align 8, !tbaa !53
  store ptr %1, ptr %5, align 8, !tbaa !3
  %9 = load ptr, ptr %4, align 8
  call void @llvm.lifetime.start.p0(i64 1, ptr %6) #3
  call void @llvm.lifetime.start.p0(i64 4, ptr %7) #3
  %10 = getelementptr inbounds nuw %"class.sls::bv_valuation", ptr %9, i32 0, i32 1
  %11 = call noundef ptr @_ZNK6vectorIjLb0EjE4dataEv(ptr noundef nonnull align 8 dereferenceable(8) %10)
  %12 = getelementptr inbounds nuw %"class.sls::bv_valuation", ptr %9, i32 0, i32 9
  %13 = load i32, ptr %12, align 4, !tbaa !57
  %14 = getelementptr inbounds nuw %"class.sls::bv_valuation", ptr %9, i32 0, i32 2
  %15 = call noundef ptr @_ZNK6vectorIjLb0EjE4dataEv(ptr noundef nonnull align 8 dereferenceable(8) %14)
  %16 = getelementptr inbounds nuw %"class.sls::bv_valuation", ptr %9, i32 0, i32 9
  %17 = load i32, ptr %16, align 4, !tbaa !57
  %18 = call noundef i32 @_ZNK11mpn_manager7compareEPKjjS1_j(ptr noundef nonnull align 1 dereferenceable(1) %6, ptr noundef %11, i32 noundef %13, ptr noundef %15, i32 noundef %17)
  store i32 %18, ptr %7, align 4, !tbaa !8
  %19 = load i32, ptr %7, align 4, !tbaa !8
  %20 = icmp eq i32 %19, 0
  br i1 %20, label %21, label %22

21:                                               ; preds = %2
  store i1 true, ptr %3, align 1
  store i32 1, ptr %8, align 4
  br label %73

22:                                               ; preds = %2
  %23 = load i32, ptr %7, align 4, !tbaa !8
  %24 = icmp slt i32 %23, 0
  br i1 %24, label %25, label %49

25:                                               ; preds = %22
  %26 = getelementptr inbounds nuw %"class.sls::bv_valuation", ptr %9, i32 0, i32 1
  %27 = call noundef ptr @_ZNK6vectorIjLb0EjE4dataEv(ptr noundef nonnull align 8 dereferenceable(8) %26)
  %28 = getelementptr inbounds nuw %"class.sls::bv_valuation", ptr %9, i32 0, i32 9
  %29 = load i32, ptr %28, align 4, !tbaa !57
  %30 = load ptr, ptr %5, align 8, !tbaa !3
  %31 = call noundef ptr @_ZNK6vectorIjLb0EjE4dataEv(ptr noundef nonnull align 8 dereferenceable(8) %30)
  %32 = getelementptr inbounds nuw %"class.sls::bv_valuation", ptr %9, i32 0, i32 9
  %33 = load i32, ptr %32, align 4, !tbaa !57
  %34 = call noundef i32 @_ZNK11mpn_manager7compareEPKjjS1_j(ptr noundef nonnull align 1 dereferenceable(1) %6, ptr noundef %27, i32 noundef %29, ptr noundef %31, i32 noundef %33)
  %35 = icmp sle i32 %34, 0
  br i1 %35, label %36, label %47

36:                                               ; preds = %25
  %37 = load ptr, ptr %5, align 8, !tbaa !3
  %38 = call noundef ptr @_ZNK6vectorIjLb0EjE4dataEv(ptr noundef nonnull align 8 dereferenceable(8) %37)
  %39 = getelementptr inbounds nuw %"class.sls::bv_valuation", ptr %9, i32 0, i32 9
  %40 = load i32, ptr %39, align 4, !tbaa !57
  %41 = getelementptr inbounds nuw %"class.sls::bv_valuation", ptr %9, i32 0, i32 2
  %42 = call noundef ptr @_ZNK6vectorIjLb0EjE4dataEv(ptr noundef nonnull align 8 dereferenceable(8) %41)
  %43 = getelementptr inbounds nuw %"class.sls::bv_valuation", ptr %9, i32 0, i32 9
  %44 = load i32, ptr %43, align 4, !tbaa !57
  %45 = call noundef i32 @_ZNK11mpn_manager7compareEPKjjS1_j(ptr noundef nonnull align 1 dereferenceable(1) %6, ptr noundef %38, i32 noundef %40, ptr noundef %42, i32 noundef %44)
  %46 = icmp slt i32 %45, 0
  br label %47

47:                                               ; preds = %36, %25
  %48 = phi i1 [ false, %25 ], [ %46, %36 ]
  store i1 %48, ptr %3, align 1
  store i32 1, ptr %8, align 4
  br label %73

49:                                               ; preds = %22
  %50 = getelementptr inbounds nuw %"class.sls::bv_valuation", ptr %9, i32 0, i32 1
  %51 = call noundef ptr @_ZNK6vectorIjLb0EjE4dataEv(ptr noundef nonnull align 8 dereferenceable(8) %50)
  %52 = getelementptr inbounds nuw %"class.sls::bv_valuation", ptr %9, i32 0, i32 9
  %53 = load i32, ptr %52, align 4, !tbaa !57
  %54 = load ptr, ptr %5, align 8, !tbaa !3
  %55 = call noundef ptr @_ZNK6vectorIjLb0EjE4dataEv(ptr noundef nonnull align 8 dereferenceable(8) %54)
  %56 = getelementptr inbounds nuw %"class.sls::bv_valuation", ptr %9, i32 0, i32 9
  %57 = load i32, ptr %56, align 4, !tbaa !57
  %58 = call noundef i32 @_ZNK11mpn_manager7compareEPKjjS1_j(ptr noundef nonnull align 1 dereferenceable(1) %6, ptr noundef %51, i32 noundef %53, ptr noundef %55, i32 noundef %57)
  %59 = icmp sle i32 %58, 0
  br i1 %59, label %71, label %60

60:                                               ; preds = %49
  %61 = load ptr, ptr %5, align 8, !tbaa !3
  %62 = call noundef ptr @_ZNK6vectorIjLb0EjE4dataEv(ptr noundef nonnull align 8 dereferenceable(8) %61)
  %63 = getelementptr inbounds nuw %"class.sls::bv_valuation", ptr %9, i32 0, i32 9
  %64 = load i32, ptr %63, align 4, !tbaa !57
  %65 = getelementptr inbounds nuw %"class.sls::bv_valuation", ptr %9, i32 0, i32 2
  %66 = call noundef ptr @_ZNK6vectorIjLb0EjE4dataEv(ptr noundef nonnull align 8 dereferenceable(8) %65)
  %67 = getelementptr inbounds nuw %"class.sls::bv_valuation", ptr %9, i32 0, i32 9
  %68 = load i32, ptr %67, align 4, !tbaa !57
  %69 = call noundef i32 @_ZNK11mpn_manager7compareEPKjjS1_j(ptr noundef nonnull align 1 dereferenceable(1) %6, ptr noundef %62, i32 noundef %64, ptr noundef %66, i32 noundef %68)
  %70 = icmp slt i32 %69, 0
  br label %71

71:                                               ; preds = %60, %49
  %72 = phi i1 [ true, %49 ], [ %70, %60 ]
  store i1 %72, ptr %3, align 1
  store i32 1, ptr %8, align 4
  br label %73

73:                                               ; preds = %71, %47, %21
  call void @llvm.lifetime.end.p0(i64 4, ptr %7) #3
  call void @llvm.lifetime.end.p0(i64 1, ptr %6) #3
  %74 = load i1, ptr %3, align 1
  ret i1 %74
}

; Function Attrs: mustprogress nounwind uwtable
define linkonce_odr hidden noundef nonnull align 4 dereferenceable(4) ptr @_ZNK6vectorIjLb0EjEixEj(ptr noundef nonnull align 8 dereferenceable(8) %0, i32 noundef %1) #5 comdat align 2 {
  %3 = alloca ptr, align 8
  %4 = alloca i32, align 4
  store ptr %0, ptr %3, align 8, !tbaa !17
  store i32 %1, ptr %4, align 4, !tbaa !8
  %5 = load ptr, ptr %3, align 8
  %6 = getelementptr inbounds nuw %class.vector, ptr %5, i32 0, i32 0
  %7 = load ptr, ptr %6, align 8, !tbaa !19
  %8 = load i32, ptr %4, align 4, !tbaa !8
  %9 = zext i32 %8 to i64
  %10 = getelementptr inbounds nuw i32, ptr %7, i64 %9
  ret ptr %10
}

; Function Attrs: mustprogress uwtable
define hidden noundef zeroext i1 @_ZNK3sls12bv_valuation7can_setERKNS_5bvectE(ptr noundef nonnull align 8 dereferenceable(184) %0, ptr noundef nonnull align 8 dereferenceable(20) %1) #4 align 2 {
  %3 = alloca i1, align 1
  %4 = alloca ptr, align 8
  %5 = alloca ptr, align 8
  %6 = alloca i32, align 4
  %7 = alloca i32, align 4
  store ptr %0, ptr %4, align 8, !tbaa !53
  store ptr %1, ptr %5, align 8, !tbaa !3
  %8 = load ptr, ptr %4, align 8
  call void @llvm.lifetime.start.p0(i64 4, ptr %6) #3
  store i32 0, ptr %6, align 4, !tbaa !8
  br label %9

9:                                                ; preds = %33, %2
  %10 = load i32, ptr %6, align 4, !tbaa !8
  %11 = getelementptr inbounds nuw %"class.sls::bv_valuation", ptr %8, i32 0, i32 9
  %12 = load i32, ptr %11, align 4, !tbaa !57
  %13 = icmp ult i32 %10, %12
  br i1 %13, label %15, label %14

14:                                               ; preds = %9
  store i32 2, ptr %7, align 4
  br label %36

15:                                               ; preds = %9
  %16 = load ptr, ptr %5, align 8, !tbaa !3
  %17 = load i32, ptr %6, align 4, !tbaa !8
  %18 = call noundef nonnull align 4 dereferenceable(4) ptr @_ZNK6vectorIjLb0EjEixEj(ptr noundef nonnull align 8 dereferenceable(8) %16, i32 noundef %17)
  %19 = load i32, ptr %18, align 4, !tbaa !8
  %20 = getelementptr inbounds nuw %"class.sls::bv_valuation", ptr %8, i32 0, i32 4
  %21 = load i32, ptr %6, align 4, !tbaa !8
  %22 = call noundef nonnull align 4 dereferenceable(4) ptr @_ZNK6vectorIjLb0EjEixEj(ptr noundef nonnull align 8 dereferenceable(8) %20, i32 noundef %21)
  %23 = load i32, ptr %22, align 4, !tbaa !8
  %24 = xor i32 %19, %23
  %25 = getelementptr inbounds nuw %"class.sls::bv_valuation", ptr %8, i32 0, i32 3
  %26 = load i32, ptr %6, align 4, !tbaa !8
  %27 = call noundef nonnull align 4 dereferenceable(4) ptr @_ZNK6vectorIjLb0EjEixEj(ptr noundef nonnull align 8 dereferenceable(8) %25, i32 noundef %26)
  %28 = load i32, ptr %27, align 4, !tbaa !8
  %29 = and i32 %24, %28
  %30 = icmp ne i32 0, %29
  br i1 %30, label %31, label %32

31:                                               ; preds = %15
  store i1 false, ptr %3, align 1
  store i32 1, ptr %7, align 4
  br label %36

32:                                               ; preds = %15
  br label %33

33:                                               ; preds = %32
  %34 = load i32, ptr %6, align 4, !tbaa !8
  %35 = add i32 %34, 1
  store i32 %35, ptr %6, align 4, !tbaa !8
  br label %9, !llvm.loop !66

36:                                               ; preds = %31, %14
  call void @llvm.lifetime.end.p0(i64 4, ptr %6) #3
  %37 = load i32, ptr %7, align 4
  switch i32 %37, label %43 [
    i32 2, label %38
    i32 1, label %41
  ]

38:                                               ; preds = %36
  %39 = load ptr, ptr %5, align 8, !tbaa !3
  %40 = call noundef zeroext i1 @_ZNK3sls12bv_valuation8in_rangeERKNS_5bvectE(ptr noundef nonnull align 8 dereferenceable(184) %8, ptr noundef nonnull align 8 dereferenceable(20) %39)
  store i1 %40, ptr %3, align 1
  br label %41

41:                                               ; preds = %38, %36
  %42 = load i1, ptr %3, align 1
  ret i1 %42

43:                                               ; preds = %36
  unreachable
}