; Function Attrs: mustprogress uwtable
define hidden noundef zeroext i1 @_ZNK3sls12bv_valuation7can_setERKNS_5bvectE(ptr noundef nonnull readonly align 8 captures(none) dereferenceable(184) %0, ptr noundef nonnull readonly align 8 captures(none) dereferenceable(20) %1) local_unnamed_addr #3 align 2 {
  %3 = alloca %class.mpn_manager, align 1
  %4 = getelementptr inbounds nuw i8, ptr %0, i64 156
  %5 = load i32, ptr %4, align 4, !tbaa !68
  %.not18 = icmp eq i32 %5, 0
  br i1 %.not18, label %._crit_edge, label %.lr.ph

.lr.ph:                                           ; preds = %2
  %6 = load ptr, ptr %1, align 8, !tbaa !14
  %7 = getelementptr inbounds nuw i8, ptr %0, i64 96
  %8 = load ptr, ptr %7, align 8, !tbaa !14
  %9 = getelementptr inbounds nuw i8, ptr %0, i64 72
  %10 = load ptr, ptr %9, align 8, !tbaa !14
  %wide.trip.count = zext i32 %5 to i64
  br label %12

11:                                               ; preds = %12
  %indvars.iv.next = add nuw nsw i64 %indvars.iv, 1
  %exitcond.not = icmp eq i64 %indvars.iv.next, %wide.trip.count
  br i1 %exitcond.not, label %._crit_edge, label %12, !llvm.loop !79

12:                                               ; preds = %.lr.ph, %11
  %indvars.iv = phi i64 [ 0, %.lr.ph ], [ %indvars.iv.next, %11 ]
  %13 = getelementptr inbounds nuw i32, ptr %6, i64 %indvars.iv
  %14 = load i32, ptr %13, align 4, !tbaa !15
  %15 = getelementptr inbounds nuw i32, ptr %8, i64 %indvars.iv
  %16 = load i32, ptr %15, align 4, !tbaa !15
  %17 = xor i32 %16, %14
  %18 = getelementptr inbounds nuw i32, ptr %10, i64 %indvars.iv
  %19 = load i32, ptr %18, align 4, !tbaa !15
  %20 = and i32 %19, %17
  %.not = icmp eq i32 %20, 0
  br i1 %.not, label %11, label %.loopexit

._crit_edge:                                      ; preds = %11, %2
  call void @llvm.lifetime.start.p0(i64 1, ptr nonnull %3) #29
  %21 = getelementptr inbounds nuw i8, ptr %0, i64 24
  %22 = load ptr, ptr %21, align 8, !tbaa !14
  %23 = getelementptr inbounds nuw i8, ptr %0, i64 48
  %24 = load ptr, ptr %23, align 8, !tbaa !14
  %25 = call noundef i32 @_ZNK11mpn_manager7compareEPKjjS1_j(ptr noundef nonnull align 1 dereferenceable(1) %3, ptr noundef %22, i32 noundef %5, ptr noundef %24, i32 noundef %5)
  %26 = icmp eq i32 %25, 0
  br i1 %26, label %_ZNK3sls12bv_valuation8in_rangeERKNS_5bvectE.exit, label %27

27:                                               ; preds = %._crit_edge
  %28 = icmp slt i32 %25, 0
  %29 = load ptr, ptr %21, align 8, !tbaa !14
  %30 = load i32, ptr %4, align 4, !tbaa !68
  %31 = load ptr, ptr %1, align 8, !tbaa !14
  %32 = call noundef i32 @_ZNK11mpn_manager7compareEPKjjS1_j(ptr noundef nonnull align 1 dereferenceable(1) %3, ptr noundef %29, i32 noundef %30, ptr noundef %31, i32 noundef %30)
  %33 = icmp slt i32 %32, 1
  br i1 %28, label %34, label %35

34:                                               ; preds = %27
  br i1 %33, label %.sink.split.i, label %_ZNK3sls12bv_valuation8in_rangeERKNS_5bvectE.exit

35:                                               ; preds = %27
  br i1 %33, label %_ZNK3sls12bv_valuation8in_rangeERKNS_5bvectE.exit, label %.sink.split.i

.sink.split.i:                                    ; preds = %35, %34
  %36 = load ptr, ptr %1, align 8, !tbaa !14
  %37 = load i32, ptr %4, align 4, !tbaa !68
  %38 = load ptr, ptr %23, align 8, !tbaa !14
  %39 = call noundef i32 @_ZNK11mpn_manager7compareEPKjjS1_j(ptr noundef nonnull align 1 dereferenceable(1) %3, ptr noundef %36, i32 noundef %37, ptr noundef %38, i32 noundef %37)
  %40 = icmp slt i32 %39, 0
  br label %_ZNK3sls12bv_valuation8in_rangeERKNS_5bvectE.exit

_ZNK3sls12bv_valuation8in_rangeERKNS_5bvectE.exit: ; preds = %._crit_edge, %34, %35, %.sink.split.i
  %.0.i = phi i1 [ true, %._crit_edge ], [ false, %34 ], [ true, %35 ], [ %40, %.sink.split.i ]
  call void @llvm.lifetime.end.p0(i64 1, ptr nonnull %3) #29
  br label %.loopexit

.loopexit:                                        ; preds = %12, %_ZNK3sls12bv_valuation8in_rangeERKNS_5bvectE.exit
  %.1 = phi i1 [ %.0.i, %_ZNK3sls12bv_valuation8in_rangeERKNS_5bvectE.exit ], [ false, %12 ]
  ret i1 %.1
}